; Function Attrs: nounwind uwtable
define internal void @_array_job_on_free(ptr noundef readonly captures(none) %0, ptr readnone captures(none) %1) #0 {
  %3 = alloca %struct.job_record, align 8
  %4 = load i64, ptr getelementptr inbounds nuw (i8, ptr @slurm_conf, i64 320), align 8
  %5 = and i64 %4, 268435456
  %.not = icmp eq i64 %5, 0
  br i1 %.not, label %13, label %6

6:                                                ; preds = %2
  %7 = tail call i32 @get_log_level() #9
  %8 = icmp sgt i32 %7, 3
  br i1 %8, label %9, label %13

9:                                                ; preds = %6
  call void @llvm.memset.p0.i64(ptr noundef nonnull align 8 dereferenceable(1152) %3, i8 0, i64 1152, i1 false)
  store i32 -256427732, ptr %3, align 8
  %10 = getelementptr inbounds nuw i8, ptr %3, i64 52
  store i32 -2, ptr %10, align 4
  %11 = getelementptr inbounds nuw i8, ptr %3, i64 392
  %12 = load i32, ptr %0, align 4
  store i32 %12, ptr %11, align 8
  call void (i32, ptr, ...) @log_var(i32 noundef 4, ptr noundef nonnull @.str.39, ptr noundef nonnull @.str.12, ptr noundef nonnull %3) #9
  br label %13

13:                                               ; preds = %6, %9, %2
  ret void
}